; Function Attrs: mustprogress nounwind uwtable
define void @_ZN6icu_7520StackUResourceBundleD2Ev(ptr noundef nonnull align 8 dereferenceable(136) %this) unnamed_addr #0 align 2 personality ptr @__gxx_personality_v0 {
entry:
  invoke fastcc void @_ZL16ures_closeBundleP15UResourceBundlea(ptr noundef nonnull %this, i8 noundef signext 1)
          to label %invoke.cont unwind label %terminate.lpad

invoke.cont:                                      ; preds = %entry
  ret void

terminate.lpad:                                   ; preds = %entry
  %0 = landingpad { ptr, i32 }
          catch ptr null
  %1 = extractvalue { ptr, i32 } %0, 0
  tail call void @__clang_call_terminate(ptr %1) #22
  unreachable
}